target datalayout = "e-m:e-p270:32:32-p271:32:32-p272:64:64-i64:64-i128:128-f80:128-n8:16:32:64-S128"
target triple = "x86_64-pc-linux-gnu"

%struct._packet_info = type { ptr, ptr, i32, i32, %struct.nstime_t, %struct.nstime_t, %struct.nstime_t, i8, ptr, ptr, ptr, ptr, %struct._address, %struct._address, %struct._address, %struct._address, %struct._address, %struct._address, i32, ptr, i8, [3 x i8], %struct.anon, i32, i32, i32, i32, ptr, i8, ptr, ptr, i16, i16, i32, i32, i16, i32, i32, ptr, ptr, ptr, i8, i8, i16, i16, i16, i32, i16, i16, ptr, ptr, ptr, ptr, ptr, i32, i32 }
%struct.nstime_t = type { i64, i32 }
%struct._address = type { i32, i32, ptr, ptr }
%struct.anon = type { i8, [3 x i8] }

@hf_oss_udp_transport_version = internal global i32 0, align 4
@hf_oss_udp_transport_flags_type = internal global i32 0, align 4
@hf_oss_udp_transport_counter = internal global i32 0, align 4
@hf_oss_udp_transport_sender = internal global i32 0, align 4
@hf_oss_udp_transport_datapoint = internal global i32 0, align 4
@hf_oss_udp_transport_length = internal global i32 0, align 4
@ett_opensafety = internal global i32 0, align 4
@.str.206 = private unnamed_addr constant [20 x i8] c"openSAFETY over UDP\00", align 1
@proto_oss_udp_transport = internal global i32 0, align 4
@global_udp_frame2_first = internal global i8 0, align 1
@global_enable_udp = internal global i8 1, align 1
@.str.258 = private unnamed_addr constant [5 x i8] c"data\00", align 1
@.str.262 = private unnamed_addr constant [10 x i8] c"sercosiii\00", align 1
@.str.347 = private unnamed_addr constant [1 x i8] zeroinitializer, align 1
@dissect_opensafety_udpdata.frameNum = internal global i32 0, align 4
@dissect_opensafety_udpdata.frameIdx = internal global i32 0, align 4
@.str.348 = private unnamed_addr constant [25 x i8] c"opensafety_udp_transport\00", align 1
@.str.349 = private unnamed_addr constant [15 x i8] c"openSAFETY/UDP\00", align 1
@heuristic_siii_dissection_enabled = internal global i8 1, align 1
@bDissector_Called_Once_Before = internal global i8 0, align 1
@.str.350 = private unnamed_addr constant [21 x i8] c"openSAFETY/SercosIII\00", align 1

; Function Attrs: null_pointer_is_valid sspstrong uwtable
define internal i32 @opensafety_udp_transport_dissector(ptr noundef %0, ptr noundef %1, ptr noundef %2) #0 {
  %4 = alloca ptr, align 8
  %5 = alloca ptr, align 8
  %6 = alloca ptr, align 8
  %7 = alloca ptr, align 8
  %8 = alloca ptr, align 8
  %9 = alloca i32, align 4
  %10 = alloca ptr, align 8
  store ptr %0, ptr %4, align 8
  store ptr %1, ptr %5, align 8
  store ptr %2, ptr %6, align 8
  call void @llvm.lifetime.start.p0(i64 8, ptr %7) #12
  store ptr null, ptr %7, align 8
  call void @llvm.lifetime.start.p0(i64 8, ptr %8) #12
  store ptr null, ptr %8, align 8
  call void @llvm.lifetime.start.p0(i64 4, ptr %9) #12
  store i32 0, ptr %9, align 4
  call void @llvm.lifetime.start.p0(i64 8, ptr %10) #12
  store ptr null, ptr %10, align 8
  %11 = load ptr, ptr %5, align 8
  %12 = getelementptr inbounds nuw %struct._packet_info, ptr %11, i32 0, i32 1
  %13 = load ptr, ptr %12, align 8
  call void @col_set_str(ptr noundef %13, i32 noundef 35, ptr noundef @.str.206)
  %14 = load ptr, ptr %5, align 8
  %15 = getelementptr inbounds nuw %struct._packet_info, ptr %14, i32 0, i32 1
  %16 = load ptr, ptr %15, align 8
  call void @col_clear(ptr noundef %16, i32 noundef 25)
  %17 = load ptr, ptr %6, align 8
  %18 = load i32, ptr @proto_oss_udp_transport, align 4
  %19 = load ptr, ptr %4, align 8
  %20 = call ptr @proto_tree_add_item(ptr noundef %17, i32 noundef %18, ptr noundef %19, i32 noundef 0, i32 noundef -1, i32 noundef 0)
  store ptr %20, ptr %7, align 8
  %21 = load ptr, ptr %7, align 8
  %22 = load i32, ptr @ett_opensafety, align 4
  %23 = call ptr @proto_item_add_subtree(ptr noundef %21, i32 noundef %22)
  store ptr %23, ptr %8, align 8
  %24 = load ptr, ptr %8, align 8
  %25 = load i32, ptr @hf_oss_udp_transport_version, align 4
  %26 = load ptr, ptr %4, align 8
  %27 = call ptr @proto_tree_add_item(ptr noundef %24, i32 noundef %25, ptr noundef %26, i32 noundef 0, i32 noundef 1, i32 noundef 0)
  %28 = load ptr, ptr %8, align 8
  %29 = load i32, ptr @hf_oss_udp_transport_flags_type, align 4
  %30 = load ptr, ptr %4, align 8
  %31 = call ptr @proto_tree_add_item(ptr noundef %28, i32 noundef %29, ptr noundef %30, i32 noundef 1, i32 noundef 1, i32 noundef 0)
  %32 = load ptr, ptr %8, align 8
  %33 = load i32, ptr @hf_oss_udp_transport_counter, align 4
  %34 = load ptr, ptr %4, align 8
  %35 = call ptr @proto_tree_add_item(ptr noundef %32, i32 noundef %33, ptr noundef %34, i32 noundef 2, i32 noundef 2, i32 noundef -2147483648)
  %36 = load ptr, ptr %8, align 8
  %37 = load i32, ptr @hf_oss_udp_transport_sender, align 4
  %38 = load ptr, ptr %4, align 8
  %39 = call ptr @proto_tree_add_item(ptr noundef %36, i32 noundef %37, ptr noundef %38, i32 noundef 4, i32 noundef 4, i32 noundef -2147483648)
  %40 = load ptr, ptr %8, align 8
  %41 = load i32, ptr @hf_oss_udp_transport_datapoint, align 4
  %42 = load ptr, ptr %4, align 8
  %43 = call ptr @proto_tree_add_item(ptr noundef %40, i32 noundef %41, ptr noundef %42, i32 noundef 8, i32 noundef 2, i32 noundef -2147483648)
  %44 = load ptr, ptr %8, align 8
  %45 = load i32, ptr @hf_oss_udp_transport_length, align 4
  %46 = load ptr, ptr %4, align 8
  %47 = call ptr @proto_tree_add_item(ptr noundef %44, i32 noundef %45, ptr noundef %46, i32 noundef 10, i32 noundef 2, i32 noundef -2147483648)
  %48 = load i32, ptr %9, align 4
  %49 = add i32 %48, 12
  store i32 %49, ptr %9, align 4
  %50 = load ptr, ptr %4, align 8
  %51 = load i32, ptr %9, align 4
  %52 = call ptr @tvb_new_subset_remaining(ptr noundef %50, i32 noundef %51)
  store ptr %52, ptr %10, align 8
  %53 = load ptr, ptr %10, align 8
  %54 = load ptr, ptr %5, align 8
  %55 = load ptr, ptr %6, align 8
  %56 = call i32 @opensafety_package_dissector(ptr noundef @.str.349, ptr noundef @.str.347, i1 noundef zeroext false, i1 noundef zeroext false, i8 noundef zeroext 0, ptr noundef %53, ptr noundef %54, ptr noundef %55, i8 noundef zeroext 0)
  %57 = icmp ne i32 %56, 0
  br i1 %57, label %64, label %58

58:                                               ; preds = %3
  %59 = call ptr @find_dissector(ptr noundef @.str.258)
  %60 = load ptr, ptr %10, align 8
  %61 = load ptr, ptr %5, align 8
  %62 = load ptr, ptr %8, align 8
  %63 = call i32 @call_dissector(ptr noundef %59, ptr noundef %60, ptr noundef %61, ptr noundef %62)
  br label %64

64:                                               ; preds = %58, %3
  call void @llvm.lifetime.end.p0(i64 8, ptr %10) #12
  call void @llvm.lifetime.end.p0(i64 4, ptr %9) #12
  call void @llvm.lifetime.end.p0(i64 8, ptr %8) #12
  call void @llvm.lifetime.end.p0(i64 8, ptr %7) #12
  ret i32 1
}

; Function Attrs: null_pointer_is_valid sspstrong uwtable
define internal zeroext i1 @dissect_opensafety_siii(ptr noundef %0, ptr noundef %1, ptr noundef %2, ptr noundef %3) #0 {
  %5 = alloca i1, align 1
  %6 = alloca ptr, align 8
  %7 = alloca ptr, align 8
  %8 = alloca ptr, align 8
  %9 = alloca ptr, align 8
  %10 = alloca i8, align 1
  %11 = alloca i8, align 1
  %12 = alloca i8, align 1
  %13 = alloca i32, align 4
  store ptr %0, ptr %6, align 8
  store ptr %1, ptr %7, align 8
  store ptr %2, ptr %8, align 8
  store ptr %3, ptr %9, align 8
  call void @llvm.lifetime.start.p0(i64 1, ptr %10) #12
  store i8 0, ptr %10, align 1
  call void @llvm.lifetime.start.p0(i64 1, ptr %11) #12
  store i8 0, ptr %11, align 1
  call void @llvm.lifetime.start.p0(i64 1, ptr %12) #12
  %14 = load i8, ptr @heuristic_siii_dissection_enabled, align 1, !range !6, !noundef !7
  %15 = trunc i8 %14 to i1
  br i1 %15, label %17, label %16

16:                                               ; preds = %4
  store i1 false, ptr %5, align 1
  store i32 1, ptr %13, align 4
  br label %58

17:                                               ; preds = %4
  %18 = load i8, ptr @bDissector_Called_Once_Before, align 1, !range !6, !noundef !7
  %19 = trunc i8 %18 to i1
  %20 = zext i1 %19 to i32
  %21 = icmp eq i32 %20, 0
  br i1 %21, label %22, label %55

22:                                               ; preds = %17
  %23 = load ptr, ptr %7, align 8
  %24 = getelementptr inbounds nuw %struct._packet_info, ptr %23, i32 0, i32 25
  %25 = load i32, ptr %24, align 8
  %26 = icmp eq i32 %25, 8755
  %27 = zext i1 %26 to i8
  store i8 %27, ptr %11, align 1
  store i8 1, ptr @bDissector_Called_Once_Before, align 1
  %28 = load ptr, ptr %6, align 8
  %29 = call zeroext i8 @tvb_get_uint8(ptr noundef %28, i32 noundef 0)
  %30 = zext i8 %29 to i32
  %31 = shl i32 %30, 1
  %32 = trunc i32 %31 to i8
  store i8 %32, ptr %12, align 1
  %33 = load i8, ptr %11, align 1, !range !6, !noundef !7
  %34 = trunc i8 %33 to i1
  br i1 %34, label %40, label %35

35:                                               ; preds = %22
  %36 = load i8, ptr %12, align 1
  %37 = zext i8 %36 to i32
  %38 = and i32 %37, 64
  %39 = icmp eq i32 %38, 64
  br i1 %39, label %40, label %54

40:                                               ; preds = %35, %22
  %41 = load i8, ptr %11, align 1, !range !6, !noundef !7
  %42 = trunc i8 %41 to i1
  %43 = select i1 %42, ptr @.str.347, ptr @.str.262
  %44 = load ptr, ptr %6, align 8
  %45 = load ptr, ptr %7, align 8
  %46 = load ptr, ptr %8, align 8
  %47 = load i8, ptr %11, align 1, !range !6, !noundef !7
  %48 = trunc i8 %47 to i1
  %49 = select i1 %48, i32 2, i32 1
  %50 = trunc i32 %49 to i8
  %51 = call i32 @opensafety_package_dissector(ptr noundef @.str.350, ptr noundef %43, i1 noundef zeroext false, i1 noundef zeroext false, i8 noundef zeroext 0, ptr noundef %44, ptr noundef %45, ptr noundef %46, i8 noundef zeroext %50)
  %52 = icmp ne i32 %51, 0
  %53 = zext i1 %52 to i8
  store i8 %53, ptr %10, align 1
  br label %54

54:                                               ; preds = %40, %35
  store i8 0, ptr @bDissector_Called_Once_Before, align 1
  br label %55

55:                                               ; preds = %54, %17
  %56 = load i8, ptr %10, align 1, !range !6, !noundef !7
  %57 = trunc i8 %56 to i1
  store i1 %57, ptr %5, align 1
  store i32 1, ptr %13, align 4
  br label %58

58:                                               ; preds = %55, %16
  call void @llvm.lifetime.end.p0(i64 1, ptr %12) #12
  call void @llvm.lifetime.end.p0(i64 1, ptr %11) #12
  call void @llvm.lifetime.end.p0(i64 1, ptr %10) #12
  %59 = load i1, ptr %5, align 1
  ret i1 %59
}

; Function Attrs: null_pointer_is_valid sspstrong uwtable
define internal i32 @dissect_opensafety_udpdata(ptr noundef %0, ptr noundef %1, ptr noundef %2, ptr noundef %3) #0 {
  %5 = alloca i32, align 4
  %6 = alloca ptr, align 8
  %7 = alloca ptr, align 8
  %8 = alloca ptr, align 8
  %9 = alloca ptr, align 8
  %10 = alloca i32, align 4
  %11 = alloca i8, align 1
  %12 = alloca i32, align 4
  %13 = alloca i32, align 4
  %14 = alloca i32, align 4
  %15 = alloca ptr, align 8
  store ptr %0, ptr %6, align 8
  store ptr %1, ptr %7, align 8
  store ptr %2, ptr %8, align 8
  store ptr %3, ptr %9, align 8
  call void @llvm.lifetime.start.p0(i64 4, ptr %10) #12
  store i32 0, ptr %10, align 4
  call void @llvm.lifetime.start.p0(i64 1, ptr %11) #12
  store i8 0, ptr %11, align 1
  call void @llvm.lifetime.start.p0(i64 4, ptr %12) #12
  store i32 0, ptr %12, align 4
  call void @llvm.lifetime.start.p0(i64 4, ptr %13) #12
  store i32 0, ptr %13, align 4
  %16 = load ptr, ptr %7, align 8
  %17 = getelementptr inbounds nuw %struct._packet_info, ptr %16, i32 0, i32 25
  %18 = load i32, ptr %17, align 8
  %19 = icmp eq i32 %18, 8755
  br i1 %19, label %20, label %27

20:                                               ; preds = %4
  %21 = load ptr, ptr %6, align 8
  %22 = load ptr, ptr %7, align 8
  %23 = load ptr, ptr %8, align 8
  %24 = load ptr, ptr %9, align 8
  %25 = call zeroext i1 @dissect_opensafety_siii(ptr noundef %21, ptr noundef %22, ptr noundef %23, ptr noundef %24)
  %26 = zext i1 %25 to i32
  store i32 %26, ptr %5, align 4
  store i32 1, ptr %14, align 4
  br label %92

27:                                               ; preds = %4
  %28 = load i8, ptr @global_enable_udp, align 1, !range !6, !noundef !7
  %29 = trunc i8 %28 to i1
  br i1 %29, label %32, label %30

30:                                               ; preds = %27
  %31 = load i32, ptr %10, align 4
  store i32 %31, ptr %5, align 4
  store i32 1, ptr %14, align 4
  br label %92

32:                                               ; preds = %27
  %33 = load ptr, ptr %6, align 8
  %34 = call i32 @tvb_captured_length(ptr noundef %33)
  %35 = icmp ult i32 %34, 11
  br i1 %35, label %36, label %38

36:                                               ; preds = %32
  %37 = load i32, ptr %10, align 4
  store i32 %37, ptr %5, align 4
  store i32 1, ptr %14, align 4
  br label %92

38:                                               ; preds = %32
  %39 = load ptr, ptr %7, align 8
  %40 = getelementptr inbounds nuw %struct._packet_info, ptr %39, i32 0, i32 3
  %41 = load i32, ptr %40, align 4
  %42 = load i32, ptr @dissect_opensafety_udpdata.frameNum, align 4
  %43 = icmp ne i32 %41, %42
  br i1 %43, label %44, label %48

44:                                               ; preds = %38
  store i32 0, ptr @dissect_opensafety_udpdata.frameIdx, align 4
  %45 = load ptr, ptr %7, align 8
  %46 = getelementptr inbounds nuw %struct._packet_info, ptr %45, i32 0, i32 3
  %47 = load i32, ptr %46, align 4
  store i32 %47, ptr @dissect_opensafety_udpdata.frameNum, align 4
  br label %48

48:                                               ; preds = %44, %38
  %49 = load ptr, ptr %7, align 8
  %50 = load ptr, ptr %6, align 8
  %51 = load i8, ptr @global_udp_frame2_first, align 1, !range !6, !noundef !7
  %52 = trunc i8 %51 to i1
  %53 = call zeroext i1 @findSafetyFrame(ptr noundef %49, ptr noundef %50, i32 noundef 0, i1 noundef zeroext %52, ptr noundef %12, ptr noundef %13, ptr noundef null)
  %54 = zext i1 %53 to i8
  store i8 %54, ptr %11, align 1
  %55 = load i8, ptr %11, align 1, !range !6, !noundef !7
  %56 = trunc i8 %55 to i1
  br i1 %56, label %57, label %60

57:                                               ; preds = %48
  %58 = load i32, ptr %12, align 4
  %59 = icmp uge i32 %58, 11
  br i1 %59, label %60, label %75

60:                                               ; preds = %57, %48
  call void @llvm.lifetime.start.p0(i64 8, ptr %15) #12
  %61 = call ptr @find_dissector(ptr noundef @.str.348)
  store ptr %61, ptr %15, align 8
  %62 = load ptr, ptr %15, align 8
  %63 = icmp ne ptr %62, null
  br i1 %63, label %64, label %70

64:                                               ; preds = %60
  %65 = load ptr, ptr %15, align 8
  %66 = load ptr, ptr %6, align 8
  %67 = load ptr, ptr %7, align 8
  %68 = load ptr, ptr %8, align 8
  %69 = call i32 @call_dissector(ptr noundef %65, ptr noundef %66, ptr noundef %67, ptr noundef %68)
  br label %70

70:                                               ; preds = %64, %60
  %71 = load ptr, ptr %6, align 8
  %72 = load ptr, ptr %7, align 8
  %73 = load ptr, ptr %8, align 8
  %74 = call i32 @opensafety_udp_transport_dissector(ptr noundef %71, ptr noundef %72, ptr noundef %73)
  store i32 %74, ptr %10, align 4
  call void @llvm.lifetime.end.p0(i64 8, ptr %15) #12
  br label %84

75:                                               ; preds = %57
  %76 = load i8, ptr @global_udp_frame2_first, align 1, !range !6, !noundef !7
  %77 = trunc i8 %76 to i1
  %78 = load i32, ptr @dissect_opensafety_udpdata.frameIdx, align 4
  %79 = trunc i32 %78 to i8
  %80 = load ptr, ptr %6, align 8
  %81 = load ptr, ptr %7, align 8
  %82 = load ptr, ptr %8, align 8
  %83 = call i32 @opensafety_package_dissector(ptr noundef @.str.349, ptr noundef @.str.347, i1 noundef zeroext %77, i1 noundef zeroext false, i8 noundef zeroext %79, ptr noundef %80, ptr noundef %81, ptr noundef %82, i8 noundef zeroext 2)
  store i32 %83, ptr %10, align 4
  br label %84

84:                                               ; preds = %75, %70
  %85 = load i32, ptr %10, align 4
  %86 = icmp ne i32 %85, 0
  br i1 %86, label %87, label %90

87:                                               ; preds = %84
  %88 = load i32, ptr @dissect_opensafety_udpdata.frameIdx, align 4
  %89 = add i32 %88, 1
  store i32 %89, ptr @dissect_opensafety_udpdata.frameIdx, align 4
  br label %90

90:                                               ; preds = %87, %84
  %91 = load i32, ptr %10, align 4
  store i32 %91, ptr %5, align 4
  store i32 1, ptr %14, align 4
  br label %92

92:                                               ; preds = %90, %36, %30, %20
  call void @llvm.lifetime.end.p0(i64 4, ptr %13) #12
  call void @llvm.lifetime.end.p0(i64 4, ptr %12) #12
  call void @llvm.lifetime.end.p0(i64 1, ptr %11) #12
  call void @llvm.lifetime.end.p0(i64 4, ptr %10) #12
  %93 = load i32, ptr %5, align 4
  ret i32 %93
}