; Function Attrs: null_pointer_is_valid sspstrong uwtable
define internal range(i32 0, 2) i32 @dissect_opensafety_udpdata(ptr noundef %0, ptr noundef %1, ptr noundef %2, ptr readnone captures(none) %3) #0 {
  %5 = alloca i32, align 4
  %6 = alloca i32, align 4
  call void @llvm.lifetime.start.p0(i64 4, ptr nonnull %5) #12
  store i32 0, ptr %5, align 4
  call void @llvm.lifetime.start.p0(i64 4, ptr nonnull %6) #12
  store i32 0, ptr %6, align 4
  %7 = getelementptr inbounds nuw i8, ptr %1, i64 288
  %8 = load i32, ptr %7, align 8
  %9 = icmp eq i32 %8, 8755
  br i1 %9, label %10, label %17

10:                                               ; preds = %4
  %11 = load i8, ptr @heuristic_siii_dissection_enabled, align 1, !range !6, !noundef !7
  %12 = trunc nuw i8 %11 to i1
  br i1 %12, label %13, label %dissect_opensafety_siii.exit

13:                                               ; preds = %10
  %.b11.i = load i1, ptr @bDissector_Called_Once_Before, align 1
  br i1 %.b11.i, label %dissect_opensafety_siii.exit, label %14

14:                                               ; preds = %13
  store i1 true, ptr @bDissector_Called_Once_Before, align 1
  %15 = tail call zeroext i8 @tvb_get_uint8(ptr noundef %0, i32 noundef 0)
  %16 = tail call fastcc i32 @opensafety_package_dissector(ptr noundef nonnull @.str.350, ptr noundef nonnull @.str.347, i1 noundef zeroext false, i1 noundef zeroext false, i8 noundef zeroext 0, ptr noundef %0, ptr noundef %1, ptr noundef %2, i8 noundef zeroext 2)
  store i1 false, ptr @bDissector_Called_Once_Before, align 1
  br label %dissect_opensafety_siii.exit

17:                                               ; preds = %4
  %18 = load i8, ptr @global_enable_udp, align 1, !range !6, !noundef !7
  %19 = trunc nuw i8 %18 to i1
  br i1 %19, label %20, label %dissect_opensafety_siii.exit

20:                                               ; preds = %17
  %21 = tail call i32 @tvb_captured_length(ptr noundef %0)
  %22 = icmp ult i32 %21, 11
  br i1 %22, label %dissect_opensafety_siii.exit, label %23

23:                                               ; preds = %20
  %24 = getelementptr inbounds nuw i8, ptr %1, i64 20
  %25 = load i32, ptr %24, align 4
  %26 = load i32, ptr @dissect_opensafety_udpdata.frameNum, align 4
  %.not29 = icmp eq i32 %25, %26
  br i1 %.not29, label %28, label %27

27:                                               ; preds = %23
  store i32 0, ptr @dissect_opensafety_udpdata.frameIdx, align 4
  store i32 %25, ptr @dissect_opensafety_udpdata.frameNum, align 4
  br label %28

28:                                               ; preds = %27, %23
  %29 = load i8, ptr @global_udp_frame2_first, align 1, !range !6, !noundef !7
  %30 = trunc nuw i8 %29 to i1
  %31 = call fastcc zeroext i1 @findSafetyFrame(ptr noundef %1, ptr noundef %0, i32 noundef 0, i1 noundef zeroext %30, ptr noundef nonnull %5, ptr noundef nonnull %6, ptr noundef null)
  %32 = load i32, ptr %5, align 4
  %33 = icmp ult i32 %32, 11
  %or.cond.not = select i1 %31, i1 %33, i1 false
  br i1 %or.cond.not, label %opensafety_udp_transport_dissector.exit, label %34

34:                                               ; preds = %28
  %35 = tail call ptr @find_dissector(ptr noundef nonnull @.str.348)
  %.not = icmp eq ptr %35, null
  br i1 %.not, label %38, label %36

36:                                               ; preds = %34
  %37 = tail call i32 @call_dissector(ptr noundef nonnull %35, ptr noundef %0, ptr noundef %1, ptr noundef %2)
  br label %38

38:                                               ; preds = %36, %34
  %39 = getelementptr inbounds nuw i8, ptr %1, i64 8
  %40 = load ptr, ptr %39, align 8
  tail call void @col_set_str(ptr noundef %40, i32 noundef 35, ptr noundef nonnull @.str.206)
  %41 = load ptr, ptr %39, align 8
  tail call void @col_clear(ptr noundef %41, i32 noundef 25)
  %42 = load i32, ptr @proto_oss_udp_transport, align 4
  %43 = tail call ptr @proto_tree_add_item(ptr noundef %2, i32 noundef %42, ptr noundef %0, i32 noundef 0, i32 noundef -1, i32 noundef 0)
  %44 = load i32, ptr @ett_opensafety, align 4
  %45 = tail call ptr @proto_item_add_subtree(ptr noundef %43, i32 noundef %44)
  %46 = load i32, ptr @hf_oss_udp_transport_version, align 4
  %47 = tail call ptr @proto_tree_add_item(ptr noundef %45, i32 noundef %46, ptr noundef %0, i32 noundef 0, i32 noundef 1, i32 noundef 0)
  %48 = load i32, ptr @hf_oss_udp_transport_flags_type, align 4
  %49 = tail call ptr @proto_tree_add_item(ptr noundef %45, i32 noundef %48, ptr noundef %0, i32 noundef 1, i32 noundef 1, i32 noundef 0)
  %50 = load i32, ptr @hf_oss_udp_transport_counter, align 4
  %51 = tail call ptr @proto_tree_add_item(ptr noundef %45, i32 noundef %50, ptr noundef %0, i32 noundef 2, i32 noundef 2, i32 noundef -2147483648)
  %52 = load i32, ptr @hf_oss_udp_transport_sender, align 4
  %53 = tail call ptr @proto_tree_add_item(ptr noundef %45, i32 noundef %52, ptr noundef %0, i32 noundef 4, i32 noundef 4, i32 noundef -2147483648)
  %54 = load i32, ptr @hf_oss_udp_transport_datapoint, align 4
  %55 = tail call ptr @proto_tree_add_item(ptr noundef %45, i32 noundef %54, ptr noundef %0, i32 noundef 8, i32 noundef 2, i32 noundef -2147483648)
  %56 = load i32, ptr @hf_oss_udp_transport_length, align 4
  %57 = tail call ptr @proto_tree_add_item(ptr noundef %45, i32 noundef %56, ptr noundef %0, i32 noundef 10, i32 noundef 2, i32 noundef -2147483648)
  %58 = tail call ptr @tvb_new_subset_remaining(ptr noundef %0, i32 noundef 12)
  %59 = tail call fastcc i32 @opensafety_package_dissector(ptr noundef nonnull @.str.349, ptr noundef nonnull @.str.347, i1 noundef zeroext false, i1 noundef zeroext false, i8 noundef zeroext 0, ptr noundef %58, ptr noundef %1, ptr noundef %2, i8 noundef zeroext 0)
  %.not.i32 = icmp eq i32 %59, 0
  br i1 %.not.i32, label %60, label %opensafety_udp_transport_dissector.exit.thread

60:                                               ; preds = %38
  %61 = tail call ptr @find_dissector(ptr noundef nonnull @.str.258)
  %62 = tail call i32 @call_dissector(ptr noundef %61, ptr noundef %58, ptr noundef %1, ptr noundef %45)
  br label %opensafety_udp_transport_dissector.exit.thread

opensafety_udp_transport_dissector.exit:          ; preds = %28
  %63 = load i8, ptr @global_udp_frame2_first, align 1, !range !6, !noundef !7
  %64 = trunc nuw i8 %63 to i1
  %65 = load i32, ptr @dissect_opensafety_udpdata.frameIdx, align 4
  %66 = trunc i32 %65 to i8
  %67 = tail call fastcc i32 @opensafety_package_dissector(ptr noundef nonnull @.str.349, ptr noundef nonnull @.str.347, i1 noundef zeroext %64, i1 noundef zeroext false, i8 noundef zeroext %66, ptr noundef %0, ptr noundef %1, ptr noundef %2, i8 noundef zeroext 2)
  %.not31 = icmp eq i32 %67, 0
  br i1 %.not31, label %dissect_opensafety_siii.exit, label %opensafety_udp_transport_dissector.exit.thread

opensafety_udp_transport_dissector.exit.thread:   ; preds = %60, %38, %opensafety_udp_transport_dissector.exit
  %68 = load i32, ptr @dissect_opensafety_udpdata.frameIdx, align 4
  %69 = add i32 %68, 1
  store i32 %69, ptr @dissect_opensafety_udpdata.frameIdx, align 4
  br label %dissect_opensafety_siii.exit

dissect_opensafety_siii.exit:                     ; preds = %14, %13, %10, %opensafety_udp_transport_dissector.exit, %opensafety_udp_transport_dissector.exit.thread, %20, %17
  %.0 = phi i32 [ 0, %17 ], [ 0, %20 ], [ 1, %opensafety_udp_transport_dissector.exit.thread ], [ 0, %opensafety_udp_transport_dissector.exit ], [ 0, %10 ], [ %16, %14 ], [ 0, %13 ]
  call void @llvm.lifetime.end.p0(i64 4, ptr nonnull %6) #12
  call void @llvm.lifetime.end.p0(i64 4, ptr nonnull %5) #12
  ret i32 %.0
}